target datalayout = "e-m:e-p270:32:32-p271:32:32-p272:64:64-i64:64-i128:128-f80:128-n8:16:32:64-S128"
target triple = "x86_64-pc-linux-gnu"

@hf_netlogon_computer_name = internal global i32 0, align 4
@.str.252 = private unnamed_addr constant [14 x i8] c"Computer Name\00", align 1
@hf_netlogon_logonsrv_handle = internal global i32 0, align 4
@hf_netlogon_restart_state = internal global i32 0, align 4
@hf_netlogon_database_id = internal global i32 0, align 4
@hf_netlogon_sync_context = internal global i32 0, align 4
@hf_netlogon_max_size = internal global i32 0, align 4
@.str.1135 = private unnamed_addr constant [14 x i8] c"Server Handle\00", align 1
@.str.1142 = private unnamed_addr constant [26 x i8] c"AUTHENTICATOR: credential\00", align 1
@.str.1143 = private unnamed_addr constant [36 x i8] c"AUTHENTICATOR: return_authenticator\00", align 1

; Function Attrs: null_pointer_is_valid sspstrong uwtable
define internal i32 @netlogon_dissect_netrdatabasesync2_rqst(ptr noundef %0, i32 noundef %1, ptr noundef %2, ptr noundef %3, ptr noundef %4, ptr noundef %5) #0 {
  %7 = alloca ptr, align 8
  %8 = alloca i32, align 4
  %9 = alloca ptr, align 8
  %10 = alloca ptr, align 8
  %11 = alloca ptr, align 8
  %12 = alloca ptr, align 8
  store ptr %0, ptr %7, align 8
  store i32 %1, ptr %8, align 4
  store ptr %2, ptr %9, align 8
  store ptr %3, ptr %10, align 8
  store ptr %4, ptr %11, align 8
  store ptr %5, ptr %12, align 8
  %13 = load ptr, ptr %7, align 8
  %14 = load i32, ptr %8, align 4
  %15 = load ptr, ptr %9, align 8
  %16 = load ptr, ptr %10, align 8
  %17 = load ptr, ptr %11, align 8
  %18 = load ptr, ptr %12, align 8
  %19 = load i32, ptr @hf_netlogon_logonsrv_handle, align 4
  %20 = call i32 @dissect_ndr_str_pointer_item(ptr noundef %13, i32 noundef %14, ptr noundef %15, ptr noundef %16, ptr noundef %17, ptr noundef %18, i32 noundef 1, ptr noundef @.str.1135, i32 noundef %19, i32 noundef 0)
  store i32 %20, ptr %8, align 4
  %21 = load ptr, ptr %7, align 8
  %22 = load i32, ptr %8, align 4
  %23 = load ptr, ptr %9, align 8
  %24 = load ptr, ptr %10, align 8
  %25 = load ptr, ptr %11, align 8
  %26 = load ptr, ptr %12, align 8
  %27 = load i32, ptr @hf_netlogon_computer_name, align 4
  %28 = call i32 @dissect_ndr_str_pointer_item(ptr noundef %21, i32 noundef %22, ptr noundef %23, ptr noundef %24, ptr noundef %25, ptr noundef %26, i32 noundef 1, ptr noundef @.str.252, i32 noundef %27, i32 noundef 0)
  store i32 %28, ptr %8, align 4
  %29 = load ptr, ptr %7, align 8
  %30 = load i32, ptr %8, align 4
  %31 = load ptr, ptr %9, align 8
  %32 = load ptr, ptr %10, align 8
  %33 = load ptr, ptr %11, align 8
  %34 = load ptr, ptr %12, align 8
  %35 = call i32 @dissect_ndr_pointer(ptr noundef %29, i32 noundef %30, ptr noundef %31, ptr noundef %32, ptr noundef %33, ptr noundef %34, ptr noundef @netlogon_dissect_AUTHENTICATOR, i32 noundef 1, ptr noundef @.str.1142, i32 noundef -1)
  store i32 %35, ptr %8, align 4
  %36 = load ptr, ptr %7, align 8
  %37 = load i32, ptr %8, align 4
  %38 = load ptr, ptr %9, align 8
  %39 = load ptr, ptr %10, align 8
  %40 = load ptr, ptr %11, align 8
  %41 = load ptr, ptr %12, align 8
  %42 = call i32 @dissect_ndr_pointer(ptr noundef %36, i32 noundef %37, ptr noundef %38, ptr noundef %39, ptr noundef %40, ptr noundef %41, ptr noundef @netlogon_dissect_AUTHENTICATOR, i32 noundef 1, ptr noundef @.str.1143, i32 noundef -1)
  store i32 %42, ptr %8, align 4
  %43 = load ptr, ptr %7, align 8
  %44 = load i32, ptr %8, align 4
  %45 = load ptr, ptr %9, align 8
  %46 = load ptr, ptr %10, align 8
  %47 = load ptr, ptr %11, align 8
  %48 = load ptr, ptr %12, align 8
  %49 = load i32, ptr @hf_netlogon_database_id, align 4
  %50 = call i32 @dissect_ndr_uint32(ptr noundef %43, i32 noundef %44, ptr noundef %45, ptr noundef %46, ptr noundef %47, ptr noundef %48, i32 noundef %49, ptr noundef null)
  store i32 %50, ptr %8, align 4
  %51 = load ptr, ptr %7, align 8
  %52 = load i32, ptr %8, align 4
  %53 = load ptr, ptr %9, align 8
  %54 = load ptr, ptr %10, align 8
  %55 = load ptr, ptr %11, align 8
  %56 = load ptr, ptr %12, align 8
  %57 = load i32, ptr @hf_netlogon_restart_state, align 4
  %58 = call i32 @dissect_ndr_uint16(ptr noundef %51, i32 noundef %52, ptr noundef %53, ptr noundef %54, ptr noundef %55, ptr noundef %56, i32 noundef %57, ptr noundef null)
  store i32 %58, ptr %8, align 4
  %59 = load ptr, ptr %7, align 8
  %60 = load i32, ptr %8, align 4
  %61 = load ptr, ptr %9, align 8
  %62 = load ptr, ptr %10, align 8
  %63 = load ptr, ptr %11, align 8
  %64 = load ptr, ptr %12, align 8
  %65 = load i32, ptr @hf_netlogon_sync_context, align 4
  %66 = call i32 @dissect_ndr_uint32(ptr noundef %59, i32 noundef %60, ptr noundef %61, ptr noundef %62, ptr noundef %63, ptr noundef %64, i32 noundef %65, ptr noundef null)
  store i32 %66, ptr %8, align 4
  %67 = load ptr, ptr %7, align 8
  %68 = load i32, ptr %8, align 4
  %69 = load ptr, ptr %9, align 8
  %70 = load ptr, ptr %10, align 8
  %71 = load ptr, ptr %11, align 8
  %72 = load ptr, ptr %12, align 8
  %73 = load i32, ptr @hf_netlogon_max_size, align 4
  %74 = call i32 @dissect_ndr_uint32(ptr noundef %67, i32 noundef %68, ptr noundef %69, ptr noundef %70, ptr noundef %71, ptr noundef %72, i32 noundef %73, ptr noundef null)
  store i32 %74, ptr %8, align 4
  %75 = load i32, ptr %8, align 4
  ret i32 %75
}