; Function Attrs: null_pointer_is_valid sspstrong uwtable
define internal i32 @netlogon_dissect_netrdatabasesync2_rqst(ptr noundef %0, i32 noundef %1, ptr noundef %2, ptr noundef %3, ptr noundef %4, ptr noundef %5) #0 {
  %7 = load i32, ptr @hf_netlogon_logonsrv_handle, align 4
  %8 = tail call i32 @dissect_ndr_str_pointer_item(ptr noundef %0, i32 noundef %1, ptr noundef %2, ptr noundef %3, ptr noundef %4, ptr noundef %5, i32 noundef 1, ptr noundef nonnull @.str.1135, i32 noundef %7, i32 noundef 0)
  %9 = load i32, ptr @hf_netlogon_computer_name, align 4
  %10 = tail call i32 @dissect_ndr_str_pointer_item(ptr noundef %0, i32 noundef %8, ptr noundef %2, ptr noundef %3, ptr noundef %4, ptr noundef %5, i32 noundef 1, ptr noundef nonnull @.str.252, i32 noundef %9, i32 noundef 0)
  %11 = tail call i32 @dissect_ndr_pointer(ptr noundef %0, i32 noundef %10, ptr noundef %2, ptr noundef %3, ptr noundef %4, ptr noundef %5, ptr noundef nonnull @netlogon_dissect_AUTHENTICATOR, i32 noundef 1, ptr noundef nonnull @.str.1142, i32 noundef -1)
  %12 = tail call i32 @dissect_ndr_pointer(ptr noundef %0, i32 noundef %11, ptr noundef %2, ptr noundef %3, ptr noundef %4, ptr noundef %5, ptr noundef nonnull @netlogon_dissect_AUTHENTICATOR, i32 noundef 1, ptr noundef nonnull @.str.1143, i32 noundef -1)
  %13 = load i32, ptr @hf_netlogon_database_id, align 4
  %14 = tail call i32 @dissect_ndr_uint32(ptr noundef %0, i32 noundef %12, ptr noundef %2, ptr noundef %3, ptr noundef %4, ptr noundef %5, i32 noundef %13, ptr noundef null)
  %15 = load i32, ptr @hf_netlogon_restart_state, align 4
  %16 = tail call i32 @dissect_ndr_uint16(ptr noundef %0, i32 noundef %14, ptr noundef %2, ptr noundef %3, ptr noundef %4, ptr noundef %5, i32 noundef %15, ptr noundef null)
  %17 = load i32, ptr @hf_netlogon_sync_context, align 4
  %18 = tail call i32 @dissect_ndr_uint32(ptr noundef %0, i32 noundef %16, ptr noundef %2, ptr noundef %3, ptr noundef %4, ptr noundef %5, i32 noundef %17, ptr noundef null)
  %19 = load i32, ptr @hf_netlogon_max_size, align 4
  %20 = tail call i32 @dissect_ndr_uint32(ptr noundef %0, i32 noundef %18, ptr noundef %2, ptr noundef %3, ptr noundef %4, ptr noundef %5, i32 noundef %19, ptr noundef null)
  ret i32 %20
}